target datalayout = "e-m:e-p270:32:32-p271:32:32-p272:64:64-i64:64-i128:128-f80:128-n8:16:32:64-S128"
target triple = "x86_64-pc-linux-gnu"

%struct._zend_array = type { %struct._zend_refcounted_h, %union.anon.0, i32, %union.anon.1, i32, i32, i32, i32, i64, ptr }
%struct._zend_refcounted_h = type { i32, %union.anon }
%union.anon = type { i32 }
%union.anon.0 = type { i32 }
%union.anon.1 = type { ptr }

; Function Attrs: nounwind uwtable
define ptr @zend_hash_index_add_or_update(ptr noundef %0, i64 noundef %1, ptr noundef %2, i32 noundef %3) #0 {
  %5 = alloca ptr, align 8
  %6 = alloca ptr, align 8
  %7 = alloca i64, align 8
  %8 = alloca ptr, align 8
  %9 = alloca i32, align 4
  store ptr %0, ptr %6, align 8
  store i64 %1, ptr %7, align 8
  store ptr %2, ptr %8, align 8
  store i32 %3, ptr %9, align 4
  %10 = load i32, ptr %9, align 4
  %11 = icmp eq i32 %10, 2
  br i1 %11, label %12, label %17

12:                                               ; preds = %4
  %13 = load ptr, ptr %6, align 8
  %14 = load i64, ptr %7, align 8
  %15 = load ptr, ptr %8, align 8
  %16 = call ptr @zend_hash_index_add(ptr noundef %13, i64 noundef %14, ptr noundef %15)
  store ptr %16, ptr %5, align 8
  br label %56

17:                                               ; preds = %4
  %18 = load i32, ptr %9, align 4
  %19 = icmp eq i32 %18, 10
  br i1 %19, label %20, label %25

20:                                               ; preds = %17
  %21 = load ptr, ptr %6, align 8
  %22 = load i64, ptr %7, align 8
  %23 = load ptr, ptr %8, align 8
  %24 = call ptr @zend_hash_index_add_new(ptr noundef %21, i64 noundef %22, ptr noundef %23)
  store ptr %24, ptr %5, align 8
  br label %56

25:                                               ; preds = %17
  %26 = load i32, ptr %9, align 4
  %27 = icmp eq i32 %26, 18
  br i1 %27, label %28, label %37

28:                                               ; preds = %25
  %29 = load i64, ptr %7, align 8
  %30 = load ptr, ptr %6, align 8
  %31 = getelementptr inbounds %struct._zend_array, ptr %30, i32 0, i32 8
  %32 = load i64, ptr %31, align 8
  %33 = icmp eq i64 %29, %32
  call void @llvm.assume(i1 %33)
  %34 = load ptr, ptr %6, align 8
  %35 = load ptr, ptr %8, align 8
  %36 = call ptr @zend_hash_next_index_insert(ptr noundef %34, ptr noundef %35)
  store ptr %36, ptr %5, align 8
  br label %56

37:                                               ; preds = %25
  %38 = load i32, ptr %9, align 4
  %39 = icmp eq i32 %38, 26
  br i1 %39, label %40, label %49

40:                                               ; preds = %37
  %41 = load i64, ptr %7, align 8
  %42 = load ptr, ptr %6, align 8
  %43 = getelementptr inbounds %struct._zend_array, ptr %42, i32 0, i32 8
  %44 = load i64, ptr %43, align 8
  %45 = icmp eq i64 %41, %44
  call void @llvm.assume(i1 %45)
  %46 = load ptr, ptr %6, align 8
  %47 = load ptr, ptr %8, align 8
  %48 = call ptr @zend_hash_next_index_insert_new(ptr noundef %46, ptr noundef %47)
  store ptr %48, ptr %5, align 8
  br label %56

49:                                               ; preds = %37
  %50 = load i32, ptr %9, align 4
  %51 = icmp eq i32 %50, 1
  call void @llvm.assume(i1 %51)
  %52 = load ptr, ptr %6, align 8
  %53 = load i64, ptr %7, align 8
  %54 = load ptr, ptr %8, align 8
  %55 = call ptr @zend_hash_index_update(ptr noundef %52, i64 noundef %53, ptr noundef %54)
  store ptr %55, ptr %5, align 8
  br label %56

56:                                               ; preds = %49, %40, %28, %20, %12
  %57 = load ptr, ptr %5, align 8
  ret ptr %57
}