; Function Attrs: nounwind uwtable
define noundef ptr @zend_hash_index_add_or_update(ptr noundef %0, i64 noundef %1, ptr nocapture noundef readonly %2, i32 noundef %3) local_unnamed_addr #0 {
  %5 = add i32 %3, -2
  %6 = tail call i32 @llvm.fshl.i32(i32 %5, i32 %5, i32 29)
  switch i32 %6, label %21 [
    i32 0, label %7
    i32 1, label %9
    i32 2, label %11
    i32 3, label %16
  ]

7:                                                ; preds = %4
  %8 = tail call ptr @zend_hash_index_add(ptr noundef %0, i64 noundef %1, ptr noundef %2)
  br label %24

9:                                                ; preds = %4
  %10 = tail call ptr @zend_hash_index_add_new(ptr noundef %0, i64 noundef %1, ptr noundef %2)
  br label %24

11:                                               ; preds = %4
  %12 = getelementptr inbounds i8, ptr %0, i64 40
  %13 = load i64, ptr %12, align 8
  %14 = icmp eq i64 %13, %1
  tail call void @llvm.assume(i1 %14)
  %15 = tail call ptr @zend_hash_next_index_insert(ptr noundef %0, ptr noundef %2)
  br label %24

16:                                               ; preds = %4
  %17 = getelementptr inbounds i8, ptr %0, i64 40
  %18 = load i64, ptr %17, align 8
  %19 = icmp eq i64 %18, %1
  tail call void @llvm.assume(i1 %19)
  %20 = tail call ptr @zend_hash_next_index_insert_new(ptr noundef %0, ptr noundef %2)
  br label %24

21:                                               ; preds = %4
  %22 = icmp eq i32 %3, 1
  tail call void @llvm.assume(i1 %22)
  %23 = tail call ptr @zend_hash_index_update(ptr noundef %0, i64 noundef %1, ptr noundef %2)
  br label %24

24:                                               ; preds = %21, %16, %11, %9, %7
  %.0 = phi ptr [ %8, %7 ], [ %10, %9 ], [ %15, %11 ], [ %20, %16 ], [ %23, %21 ]
  ret ptr %.0
}